target datalayout = "e-m:e-p270:32:32-p271:32:32-p272:64:64-i64:64-i128:128-f80:128-n8:16:32:64-S128"
target triple = "x86_64-pc-linux-gnu"

%class.G1HeapRegion = type { ptr, ptr, ptr, ptr, ptr, ptr, i32, %class.G1HeapRegionType, ptr, i32, ptr, ptr, ptr, i64, i32, ptr, i32, i32, i64 }
%class.G1HeapRegionType = type { i32 }
%class.G1HeapRegionSetBase = type <{ ptr, ptr, i32, [4 x i8], ptr, i8, [7 x i8] }>
%class.G1FreeRegionList = type { %class.G1HeapRegionSetBase.base, ptr, ptr, ptr, ptr }
%class.G1HeapRegionSetBase.base = type <{ ptr, ptr, i32, [4 x i8], ptr, i8 }>
%"class.G1FreeRegionList::NodeInfo" = type <{ ptr, ptr, i32, [4 x i8] }>

; Function Attrs: mustprogress nounwind uwtable
define linkonce_odr hidden noundef i32 @_ZNK19G1HeapRegionSetBase6lengthEv(ptr noundef nonnull align 8 dereferenceable(33) %0) #1 comdat align 2 {
  %2 = alloca ptr, align 8
  store ptr %0, ptr %2, align 8
  %3 = load ptr, ptr %2, align 8
  %4 = getelementptr inbounds %class.G1HeapRegionSetBase, ptr %3, i32 0, i32 2
  %5 = load i32, ptr %4, align 8
  ret i32 %5
}

; Function Attrs: mustprogress nounwind uwtable
define hidden void @_ZN16G1FreeRegionList8NodeInfo3addEPS0_(ptr noundef nonnull align 8 dereferenceable(20) %0, ptr noundef %1) #1 align 2 {
  %3 = alloca ptr, align 8
  %4 = alloca ptr, align 8
  %5 = alloca i32, align 4
  store ptr %0, ptr %3, align 8
  store ptr %1, ptr %4, align 8
  %6 = load ptr, ptr %3, align 8
  store i32 0, ptr %5, align 4
  br label %7

7:                                                ; preds = %27, %2
  %8 = load i32, ptr %5, align 4
  %9 = getelementptr inbounds %"class.G1FreeRegionList::NodeInfo", ptr %6, i32 0, i32 2
  %10 = load i32, ptr %9, align 8
  %11 = icmp ult i32 %8, %10
  br i1 %11, label %12, label %30

12:                                               ; preds = %7
  %13 = load ptr, ptr %4, align 8
  %14 = getelementptr inbounds %"class.G1FreeRegionList::NodeInfo", ptr %13, i32 0, i32 1
  %15 = load ptr, ptr %14, align 8
  %16 = load i32, ptr %5, align 4
  %17 = zext i32 %16 to i64
  %18 = getelementptr inbounds i32, ptr %15, i64 %17
  %19 = load i32, ptr %18, align 4
  %20 = getelementptr inbounds %"class.G1FreeRegionList::NodeInfo", ptr %6, i32 0, i32 1
  %21 = load ptr, ptr %20, align 8
  %22 = load i32, ptr %5, align 4
  %23 = zext i32 %22 to i64
  %24 = getelementptr inbounds i32, ptr %21, i64 %23
  %25 = load i32, ptr %24, align 4
  %26 = add i32 %25, %19
  store i32 %26, ptr %24, align 4
  br label %27

27:                                               ; preds = %12
  %28 = load i32, ptr %5, align 4
  %29 = add i32 %28, 1
  store i32 %29, ptr %5, align 4
  br label %7, !llvm.loop !8

30:                                               ; preds = %7
  ret void
}

; Function Attrs: mustprogress nounwind uwtable
define linkonce_odr hidden void @_ZN19G1HeapRegionSetBase15verify_optionalEv(ptr noundef nonnull align 8 dereferenceable(33) %0) #1 comdat align 2 {
  %2 = alloca ptr, align 8
  store ptr %0, ptr %2, align 8
  ret void
}

; Function Attrs: mustprogress nounwind uwtable
define linkonce_odr hidden void @_ZN19G1HeapRegionSetBase15check_mt_safetyEv(ptr noundef nonnull align 8 dereferenceable(33) %0) #1 comdat align 2 {
  %2 = alloca ptr, align 8
  store ptr %0, ptr %2, align 8
  %3 = load ptr, ptr %2, align 8
  %4 = getelementptr inbounds %class.G1HeapRegionSetBase, ptr %3, i32 0, i32 1
  %5 = load ptr, ptr %4, align 8
  %6 = icmp ne ptr %5, null
  br i1 %6, label %7, label %13

7:                                                ; preds = %1
  %8 = getelementptr inbounds %class.G1HeapRegionSetBase, ptr %3, i32 0, i32 1
  %9 = load ptr, ptr %8, align 8
  %10 = load ptr, ptr %9, align 8
  %11 = getelementptr inbounds ptr, ptr %10, i64 0
  %12 = load ptr, ptr %11, align 8
  call void %12(ptr noundef nonnull align 8 dereferenceable(8) %9)
  br label %13

13:                                               ; preds = %7, %1
  ret void
}

; Function Attrs: mustprogress nounwind uwtable
define hidden void @_ZN16G1FreeRegionList19add_list_common_endEPS_(ptr noundef nonnull align 8 dereferenceable(72) %0, ptr noundef %1) #1 align 2 {
  %3 = alloca ptr, align 8
  %4 = alloca ptr, align 8
  store ptr %0, ptr %3, align 8
  store ptr %1, ptr %4, align 8
  %5 = load ptr, ptr %3, align 8
  %6 = load ptr, ptr %4, align 8
  %7 = call noundef i32 @_ZNK19G1HeapRegionSetBase6lengthEv(ptr noundef nonnull align 8 dereferenceable(33) %6)
  %8 = getelementptr inbounds %class.G1HeapRegionSetBase, ptr %5, i32 0, i32 2
  %9 = load i32, ptr %8, align 8
  %10 = add i32 %9, %7
  store i32 %10, ptr %8, align 8
  %11 = load ptr, ptr %4, align 8
  %12 = load ptr, ptr %11, align 8
  %13 = getelementptr inbounds ptr, ptr %12, i64 2
  %14 = load ptr, ptr %13, align 8
  call void %14(ptr noundef nonnull align 8 dereferenceable(72) %11)
  call void @_ZN19G1HeapRegionSetBase15verify_optionalEv(ptr noundef nonnull align 8 dereferenceable(33) %5)
  %15 = load ptr, ptr %4, align 8
  call void @_ZN19G1HeapRegionSetBase15verify_optionalEv(ptr noundef nonnull align 8 dereferenceable(33) %15)
  ret void
}

; Function Attrs: mustprogress nounwind uwtable
define linkonce_odr hidden void @_ZN12G1HeapRegion8set_prevEPS_(ptr noundef nonnull align 8 dereferenceable(136) %0, ptr noundef %1) #1 comdat align 2 {
  %3 = alloca ptr, align 8
  %4 = alloca ptr, align 8
  store ptr %0, ptr %3, align 8
  store ptr %1, ptr %4, align 8
  %5 = load ptr, ptr %3, align 8
  %6 = load ptr, ptr %4, align 8
  %7 = getelementptr inbounds %class.G1HeapRegion, ptr %5, i32 0, i32 11
  store ptr %6, ptr %7, align 8
  ret void
}

; Function Attrs: mustprogress nounwind uwtable
define linkonce_odr hidden void @_ZN12G1HeapRegion8set_nextEPS_(ptr noundef nonnull align 8 dereferenceable(136) %0, ptr noundef %1) #1 comdat align 2 {
  %3 = alloca ptr, align 8
  %4 = alloca ptr, align 8
  store ptr %0, ptr %3, align 8
  store ptr %1, ptr %4, align 8
  %5 = load ptr, ptr %3, align 8
  %6 = load ptr, ptr %4, align 8
  %7 = getelementptr inbounds %class.G1HeapRegion, ptr %5, i32 0, i32 10
  store ptr %6, ptr %7, align 8
  ret void
}

; Function Attrs: mustprogress nounwind uwtable
define linkonce_odr hidden noundef zeroext i1 @_ZN19G1HeapRegionSetBase8is_emptyEv(ptr noundef nonnull align 8 dereferenceable(33) %0) #1 comdat align 2 {
  %2 = alloca ptr, align 8
  store ptr %0, ptr %2, align 8
  %3 = load ptr, ptr %2, align 8
  %4 = getelementptr inbounds %class.G1HeapRegionSetBase, ptr %3, i32 0, i32 2
  %5 = load i32, ptr %4, align 8
  %6 = icmp eq i32 %5, 0
  ret i1 %6
}

; Function Attrs: mustprogress nounwind uwtable
define hidden void @_ZN16G1FreeRegionList21add_list_common_startEPS_(ptr noundef nonnull align 8 dereferenceable(72) %0, ptr noundef %1) #1 align 2 {
  %3 = alloca ptr, align 8
  %4 = alloca ptr, align 8
  store ptr %0, ptr %3, align 8
  store ptr %1, ptr %4, align 8
  %5 = load ptr, ptr %3, align 8
  call void @_ZN19G1HeapRegionSetBase15check_mt_safetyEv(ptr noundef nonnull align 8 dereferenceable(33) %5)
  %6 = load ptr, ptr %4, align 8
  call void @_ZN19G1HeapRegionSetBase15check_mt_safetyEv(ptr noundef nonnull align 8 dereferenceable(33) %6)
  call void @_ZN19G1HeapRegionSetBase15verify_optionalEv(ptr noundef nonnull align 8 dereferenceable(33) %5)
  %7 = load ptr, ptr %4, align 8
  call void @_ZN19G1HeapRegionSetBase15verify_optionalEv(ptr noundef nonnull align 8 dereferenceable(33) %7)
  %8 = load ptr, ptr %4, align 8
  %9 = call noundef zeroext i1 @_ZN19G1HeapRegionSetBase8is_emptyEv(ptr noundef nonnull align 8 dereferenceable(33) %8)
  br i1 %9, label %10, label %11

10:                                               ; preds = %2
  br label %26

11:                                               ; preds = %2
  %12 = getelementptr inbounds %class.G1FreeRegionList, ptr %5, i32 0, i32 4
  %13 = load ptr, ptr %12, align 8
  %14 = icmp ne ptr %13, null
  br i1 %14, label %15, label %26

15:                                               ; preds = %11
  %16 = load ptr, ptr %4, align 8
  %17 = getelementptr inbounds %class.G1FreeRegionList, ptr %16, i32 0, i32 4
  %18 = load ptr, ptr %17, align 8
  %19 = icmp ne ptr %18, null
  br i1 %19, label %20, label %26

20:                                               ; preds = %15
  %21 = getelementptr inbounds %class.G1FreeRegionList, ptr %5, i32 0, i32 4
  %22 = load ptr, ptr %21, align 8
  %23 = load ptr, ptr %4, align 8
  %24 = getelementptr inbounds %class.G1FreeRegionList, ptr %23, i32 0, i32 4
  %25 = load ptr, ptr %24, align 8
  call void @_ZN16G1FreeRegionList8NodeInfo3addEPS0_(ptr noundef nonnull align 8 dereferenceable(20) %22, ptr noundef %25)
  br label %26

26:                                               ; preds = %20, %15, %11, %10
  ret void
}

; Function Attrs: mustprogress nounwind uwtable
define hidden void @_ZN16G1FreeRegionList14append_orderedEPS_(ptr noundef nonnull align 8 dereferenceable(72) %0, ptr noundef %1) #1 align 2 {
  %3 = alloca ptr, align 8
  %4 = alloca ptr, align 8
  store ptr %0, ptr %3, align 8
  store ptr %1, ptr %4, align 8
  %5 = load ptr, ptr %3, align 8
  %6 = load ptr, ptr %4, align 8
  call void @_ZN16G1FreeRegionList21add_list_common_startEPS_(ptr noundef nonnull align 8 dereferenceable(72) %5, ptr noundef %6)
  %7 = load ptr, ptr %4, align 8
  %8 = call noundef zeroext i1 @_ZN19G1HeapRegionSetBase8is_emptyEv(ptr noundef nonnull align 8 dereferenceable(33) %7)
  br i1 %8, label %9, label %10

9:                                                ; preds = %2
  br label %40

10:                                               ; preds = %2
  %11 = call noundef zeroext i1 @_ZN19G1HeapRegionSetBase8is_emptyEv(ptr noundef nonnull align 8 dereferenceable(33) %5)
  br i1 %11, label %12, label %23

12:                                               ; preds = %10
  br label %13

13:                                               ; preds = %12
  br label %14

14:                                               ; preds = %13
  %15 = load ptr, ptr %4, align 8
  %16 = getelementptr inbounds %class.G1FreeRegionList, ptr %15, i32 0, i32 1
  %17 = load ptr, ptr %16, align 8
  %18 = getelementptr inbounds %class.G1FreeRegionList, ptr %5, i32 0, i32 1
  store ptr %17, ptr %18, align 8
  %19 = load ptr, ptr %4, align 8
  %20 = getelementptr inbounds %class.G1FreeRegionList, ptr %19, i32 0, i32 2
  %21 = load ptr, ptr %20, align 8
  %22 = getelementptr inbounds %class.G1FreeRegionList, ptr %5, i32 0, i32 2
  store ptr %21, ptr %22, align 8
  br label %38

23:                                               ; preds = %10
  %24 = getelementptr inbounds %class.G1FreeRegionList, ptr %5, i32 0, i32 2
  %25 = load ptr, ptr %24, align 8
  %26 = load ptr, ptr %4, align 8
  %27 = getelementptr inbounds %class.G1FreeRegionList, ptr %26, i32 0, i32 1
  %28 = load ptr, ptr %27, align 8
  call void @_ZN12G1HeapRegion8set_nextEPS_(ptr noundef nonnull align 8 dereferenceable(136) %25, ptr noundef %28)
  %29 = load ptr, ptr %4, align 8
  %30 = getelementptr inbounds %class.G1FreeRegionList, ptr %29, i32 0, i32 1
  %31 = load ptr, ptr %30, align 8
  %32 = getelementptr inbounds %class.G1FreeRegionList, ptr %5, i32 0, i32 2
  %33 = load ptr, ptr %32, align 8
  call void @_ZN12G1HeapRegion8set_prevEPS_(ptr noundef nonnull align 8 dereferenceable(136) %31, ptr noundef %33)
  %34 = load ptr, ptr %4, align 8
  %35 = getelementptr inbounds %class.G1FreeRegionList, ptr %34, i32 0, i32 2
  %36 = load ptr, ptr %35, align 8
  %37 = getelementptr inbounds %class.G1FreeRegionList, ptr %5, i32 0, i32 2
  store ptr %36, ptr %37, align 8
  br label %38

38:                                               ; preds = %23, %14
  %39 = load ptr, ptr %4, align 8
  call void @_ZN16G1FreeRegionList19add_list_common_endEPS_(ptr noundef nonnull align 8 dereferenceable(72) %5, ptr noundef %39)
  br label %40

40:                                               ; preds = %38, %9
  ret void
}