; Function Attrs: mustprogress nounwind uwtable
define hidden void @_ZN16G1FreeRegionList14append_orderedEPS_(ptr nocapture noundef nonnull align 8 dereferenceable(72) %0, ptr noundef %1) local_unnamed_addr #0 align 2 {
  %3 = getelementptr inbounds i8, ptr %0, i64 8
  %4 = load ptr, ptr %3, align 8
  %.not.i.i = icmp eq ptr %4, null
  br i1 %.not.i.i, label %_ZN19G1HeapRegionSetBase15check_mt_safetyEv.exit.i, label %5

5:                                                ; preds = %2
  %6 = load ptr, ptr %4, align 8
  %7 = load ptr, ptr %6, align 8
  tail call void %7(ptr noundef nonnull align 8 dereferenceable(8) %4) #12
  br label %_ZN19G1HeapRegionSetBase15check_mt_safetyEv.exit.i

_ZN19G1HeapRegionSetBase15check_mt_safetyEv.exit.i: ; preds = %5, %2
  %8 = getelementptr inbounds i8, ptr %1, i64 8
  %9 = load ptr, ptr %8, align 8
  %.not.i8.i = icmp eq ptr %9, null
  br i1 %.not.i8.i, label %_ZN19G1HeapRegionSetBase15check_mt_safetyEv.exit9.i, label %10

10:                                               ; preds = %_ZN19G1HeapRegionSetBase15check_mt_safetyEv.exit.i
  %11 = load ptr, ptr %9, align 8
  %12 = load ptr, ptr %11, align 8
  tail call void %12(ptr noundef nonnull align 8 dereferenceable(8) %9) #12
  br label %_ZN19G1HeapRegionSetBase15check_mt_safetyEv.exit9.i

_ZN19G1HeapRegionSetBase15check_mt_safetyEv.exit9.i: ; preds = %10, %_ZN19G1HeapRegionSetBase15check_mt_safetyEv.exit.i
  %13 = getelementptr inbounds i8, ptr %1, i64 16
  %14 = load i32, ptr %13, align 8
  %15 = icmp eq i32 %14, 0
  br i1 %15, label %_ZN16G1FreeRegionList21add_list_common_startEPS_.exit.thread, label %16

16:                                               ; preds = %_ZN19G1HeapRegionSetBase15check_mt_safetyEv.exit9.i
  %17 = getelementptr inbounds i8, ptr %0, i64 64
  %18 = load ptr, ptr %17, align 8
  %.not.i = icmp eq ptr %18, null
  br i1 %.not.i, label %_ZN16G1FreeRegionList21add_list_common_startEPS_.exit.thread10, label %19

19:                                               ; preds = %16
  %20 = getelementptr inbounds i8, ptr %1, i64 64
  %21 = load ptr, ptr %20, align 8
  %.not7.i = icmp eq ptr %21, null
  br i1 %.not7.i, label %_ZN16G1FreeRegionList21add_list_common_startEPS_.exit.thread10, label %22

22:                                               ; preds = %19
  %23 = getelementptr inbounds i8, ptr %18, i64 16
  %24 = load i32, ptr %23, align 8
  %.not.i10.i = icmp eq i32 %24, 0
  br i1 %.not.i10.i, label %_ZN16G1FreeRegionList21add_list_common_startEPS_.exit.thread10, label %.lr.ph.i.i

.lr.ph.i.i:                                       ; preds = %22
  %25 = getelementptr inbounds i8, ptr %21, i64 8
  %26 = getelementptr inbounds i8, ptr %18, i64 8
  br label %27

27:                                               ; preds = %27, %.lr.ph.i.i
  %indvars.iv.i.i = phi i64 [ 0, %.lr.ph.i.i ], [ %indvars.iv.next.i.i, %27 ]
  %28 = load ptr, ptr %25, align 8
  %29 = getelementptr inbounds i32, ptr %28, i64 %indvars.iv.i.i
  %30 = load i32, ptr %29, align 4
  %31 = load ptr, ptr %26, align 8
  %32 = getelementptr inbounds i32, ptr %31, i64 %indvars.iv.i.i
  %33 = load i32, ptr %32, align 4
  %34 = add i32 %33, %30
  store i32 %34, ptr %32, align 4
  %indvars.iv.next.i.i = add nuw nsw i64 %indvars.iv.i.i, 1
  %35 = load i32, ptr %23, align 8
  %36 = zext i32 %35 to i64
  %37 = icmp ult i64 %indvars.iv.next.i.i, %36
  br i1 %37, label %27, label %_ZN16G1FreeRegionList21add_list_common_startEPS_.exit, !llvm.loop !8

_ZN16G1FreeRegionList21add_list_common_startEPS_.exit: ; preds = %27
  %.pr.pre = load i32, ptr %13, align 8
  %38 = icmp eq i32 %.pr.pre, 0
  br i1 %38, label %_ZN16G1FreeRegionList21add_list_common_startEPS_.exit.thread, label %_ZN16G1FreeRegionList21add_list_common_startEPS_.exit.thread10

_ZN16G1FreeRegionList21add_list_common_startEPS_.exit.thread10: ; preds = %22, %19, %16, %_ZN16G1FreeRegionList21add_list_common_startEPS_.exit
  %39 = getelementptr inbounds i8, ptr %0, i64 16
  %40 = load i32, ptr %39, align 8
  %41 = icmp eq i32 %40, 0
  br i1 %41, label %42, label %49

42:                                               ; preds = %_ZN16G1FreeRegionList21add_list_common_startEPS_.exit.thread10
  %43 = getelementptr inbounds i8, ptr %1, i64 40
  %44 = load ptr, ptr %43, align 8
  %45 = getelementptr inbounds i8, ptr %0, i64 40
  store ptr %44, ptr %45, align 8
  %46 = getelementptr inbounds i8, ptr %1, i64 48
  %47 = load ptr, ptr %46, align 8
  %48 = getelementptr inbounds i8, ptr %0, i64 48
  store ptr %47, ptr %48, align 8
  br label %59

49:                                               ; preds = %_ZN16G1FreeRegionList21add_list_common_startEPS_.exit.thread10
  %50 = getelementptr inbounds i8, ptr %0, i64 48
  %51 = load ptr, ptr %50, align 8
  %52 = getelementptr inbounds i8, ptr %1, i64 40
  %53 = load ptr, ptr %52, align 8
  %54 = getelementptr inbounds i8, ptr %51, i64 72
  store ptr %53, ptr %54, align 8
  %55 = load ptr, ptr %50, align 8
  %56 = getelementptr inbounds i8, ptr %53, i64 80
  store ptr %55, ptr %56, align 8
  %57 = getelementptr inbounds i8, ptr %1, i64 48
  %58 = load ptr, ptr %57, align 8
  store ptr %58, ptr %50, align 8
  %.pre = load i32, ptr %39, align 8
  br label %59

59:                                               ; preds = %49, %42
  %60 = phi i32 [ %.pre, %49 ], [ 0, %42 ]
  %61 = load i32, ptr %13, align 8
  %62 = add i32 %60, %61
  store i32 %62, ptr %39, align 8
  %63 = load ptr, ptr %1, align 8
  %64 = getelementptr inbounds i8, ptr %63, i64 16
  %65 = load ptr, ptr %64, align 8
  tail call void %65(ptr noundef nonnull align 8 dereferenceable(72) %1) #12
  br label %_ZN16G1FreeRegionList21add_list_common_startEPS_.exit.thread

_ZN16G1FreeRegionList21add_list_common_startEPS_.exit.thread: ; preds = %_ZN19G1HeapRegionSetBase15check_mt_safetyEv.exit9.i, %_ZN16G1FreeRegionList21add_list_common_startEPS_.exit, %59
  ret void
}